target datalayout = "e-m:e-p270:32:32-p271:32:32-p272:64:64-i64:64-i128:128-f80:128-n8:16:32:64-S128"
target triple = "x86_64-pc-linux-gnu"

%"struct.boost::unit_test::results_reporter::(anonymous namespace)::results_reporter_impl" = type { %"class.boost::unit_test::test_tree_visitor", ptr, %"class.boost::scoped_ptr", i32, %"class.boost::scoped_ptr.0" }
%"class.boost::unit_test::test_tree_visitor" = type { ptr }
%"class.boost::scoped_ptr" = type { ptr }
%"class.boost::scoped_ptr.0" = type { ptr }

; Function Attrs: mustprogress nounwind uwtable
define linkonce_odr hidden noundef ptr @_ZNK5boost10scoped_ptrINS_9unit_test16results_reporter6formatEEptEv(ptr noundef nonnull align 8 dereferenceable(8) %0) #5 comdat align 2 {
  %2 = alloca ptr, align 8
  store ptr %0, ptr %2, align 8, !tbaa !3
  %3 = load ptr, ptr %2, align 8
  %4 = getelementptr inbounds nuw %"class.boost::scoped_ptr.0", ptr %3, i32 0, i32 0
  %5 = load ptr, ptr %4, align 8, !tbaa !34
  ret ptr %5
}

; Function Attrs: mustprogress uwtable
define internal void @_ZN5boost9unit_test16results_reporter12_GLOBAL__N_121results_reporter_impl17test_suite_finishERKNS0_10test_suiteE(ptr noundef nonnull align 8 dereferenceable(40) %0, ptr noundef nonnull align 8 dereferenceable(384) %1) unnamed_addr #4 align 2 {
  %3 = alloca ptr, align 8
  %4 = alloca ptr, align 8
  store ptr %0, ptr %3, align 8, !tbaa !3
  store ptr %1, ptr %4, align 8, !tbaa !3
  %5 = load ptr, ptr %3, align 8
  %6 = getelementptr inbounds nuw %"struct.boost::unit_test::results_reporter::(anonymous namespace)::results_reporter_impl", ptr %5, i32 0, i32 4
  %7 = call noundef ptr @_ZNK5boost10scoped_ptrINS_9unit_test16results_reporter6formatEEptEv(ptr noundef nonnull align 8 dereferenceable(8) %6) #3
  %8 = load ptr, ptr %4, align 8, !tbaa !3
  %9 = getelementptr inbounds i8, ptr %8, i64 8
  %10 = getelementptr inbounds nuw %"struct.boost::unit_test::results_reporter::(anonymous namespace)::results_reporter_impl", ptr %5, i32 0, i32 1
  %11 = load ptr, ptr %10, align 8, !tbaa !15
  %12 = load ptr, ptr %7, align 8, !tbaa !16
  %13 = getelementptr inbounds ptr, ptr %12, i64 5
  %14 = load ptr, ptr %13, align 8
  call void %14(ptr noundef nonnull align 8 dereferenceable(8) %7, ptr noundef nonnull align 8 dereferenceable(280) %9, ptr noundef nonnull align 8 dereferenceable(8) %11)
  ret void
}