; Function Attrs: mustprogress uwtable
define internal void @_ZN5boost9unit_test16results_reporter12_GLOBAL__N_121results_reporter_impl17test_suite_finishERKNS0_10test_suiteE(ptr nocapture noundef nonnull readonly align 8 dereferenceable(40) %0, ptr noundef nonnull align 8 dereferenceable(384) %1) unnamed_addr #3 align 2 {
  %3 = getelementptr inbounds nuw i8, ptr %0, i64 32
  %4 = load ptr, ptr %3, align 8, !tbaa !38
  %5 = getelementptr inbounds i8, ptr %1, i64 8
  %6 = getelementptr inbounds nuw i8, ptr %0, i64 8
  %7 = load ptr, ptr %6, align 8, !tbaa !13
  %8 = load ptr, ptr %4, align 8, !tbaa !14
  %9 = getelementptr inbounds i8, ptr %8, i64 40
  %10 = load ptr, ptr %9, align 8
  tail call void %10(ptr noundef nonnull align 8 dereferenceable(8) %4, ptr noundef nonnull align 8 dereferenceable(280) %5, ptr noundef nonnull align 8 dereferenceable(8) %7)
  ret void
}